; Function Attrs: nofree norecurse nosync nounwind memory(argmem: readwrite) uwtable
define void @rgb48tobgr48_nobswap(ptr noundef readonly captures(none) %0, ptr noundef writeonly captures(none) %1, i32 noundef %2) local_unnamed_addr #0 {
  %4 = ashr i32 %2, 1
  %5 = icmp sgt i32 %4, 0
  br i1 %5, label %.lr.ph.preheader, label %._crit_edge

.lr.ph.preheader:                                 ; preds = %3
  %6 = zext nneg i32 %4 to i64
  br label %.lr.ph

.lr.ph:                                           ; preds = %.lr.ph.preheader, %.lr.ph
  %indvars.iv = phi i64 [ 0, %.lr.ph.preheader ], [ %indvars.iv.next, %.lr.ph ]
  %7 = add nuw nsw i64 %indvars.iv, 2
  %8 = getelementptr inbounds nuw i16, ptr %0, i64 %7
  %9 = load i16, ptr %8, align 2, !tbaa !16
  %10 = getelementptr inbounds nuw i16, ptr %1, i64 %indvars.iv
  store i16 %9, ptr %10, align 2, !tbaa !16
  %11 = add nuw nsw i64 %indvars.iv, 1
  %12 = getelementptr inbounds nuw i16, ptr %0, i64 %11
  %13 = load i16, ptr %12, align 2, !tbaa !16
  %14 = getelementptr inbounds nuw i16, ptr %1, i64 %11
  store i16 %13, ptr %14, align 2, !tbaa !16
  %15 = getelementptr inbounds nuw i16, ptr %0, i64 %indvars.iv
  %16 = load i16, ptr %15, align 2, !tbaa !16
  %17 = getelementptr inbounds nuw i16, ptr %1, i64 %7
  store i16 %16, ptr %17, align 2, !tbaa !16
  %indvars.iv.next = add nuw nsw i64 %indvars.iv, 3
  %18 = icmp samesign ult i64 %indvars.iv.next, %6
  br i1 %18, label %.lr.ph, label %._crit_edge, !llvm.loop !28

._crit_edge:                                      ; preds = %.lr.ph, %3
  ret void
}